; Function Attrs: mustprogress nofree norecurse nosync nounwind willreturn memory(argmem: readwrite) uwtable
define void @_ZN6icu_7725FormattedRelativeDateTimeC2EOS0_(ptr noundef nonnull writeonly align 8 captures(none) dereferenceable(20) initializes((0, 20)) %0, ptr noundef nonnull align 8 captures(none) dereferenceable(20) %1) unnamed_addr #12 align 2 {
  store ptr getelementptr inbounds nuw inrange(-16, 48) (i8, ptr @_ZTVN6icu_7725FormattedRelativeDateTimeE, i64 16), ptr %0, align 8, !tbaa !15
  %3 = getelementptr inbounds nuw i8, ptr %0, i64 8
  %4 = getelementptr inbounds nuw i8, ptr %1, i64 8
  %5 = load ptr, ptr %4, align 8, !tbaa !55
  store ptr %5, ptr %3, align 8, !tbaa !55
  %6 = getelementptr inbounds nuw i8, ptr %0, i64 16
  %7 = getelementptr inbounds nuw i8, ptr %1, i64 16
  %8 = load i32, ptr %7, align 8, !tbaa !59
  store i32 %8, ptr %6, align 8, !tbaa !59
  store ptr null, ptr %4, align 8, !tbaa !55
  store i32 27, ptr %7, align 8, !tbaa !59
  ret void
}